target datalayout = "e-m:e-p270:32:32-p271:32:32-p272:64:64-i64:64-i128:128-f80:128-n8:16:32:64-S128"
target triple = "x86_64-unknown-linux-gnu"

%"class.llvh::ArrayRef" = type { ptr, i64 }
%"class.llvh::MD5" = type { i32, i32, i32, i32, i32, i32, [64 x i8], [16 x i32] }
%"struct.llvh::MD5::MD5Result" = type { %"struct.std::array" }
%"struct.std::array" = type { [16 x i8] }
%"struct.llvh::support::detail::packed_endian_specific_integral" = type { %"struct.llvh::AlignedCharArray.0" }
%"struct.llvh::AlignedCharArray.0" = type { [4 x i8] }

; Function Attrs: mustprogress nounwind uwtable
define linkonce_odr hidden noundef i32 @_ZN4llvh3sys16SwapByteOrder_32Ej(i32 noundef %value) #0 comdat {
entry:
  %value.addr = alloca i32, align 4
  store i32 %value, ptr %value.addr, align 4
  %0 = load i32, ptr %value.addr, align 4
  %1 = call i32 @llvm.bswap.i32(i32 %0)
  ret i32 %1
}

; Function Attrs: mustprogress nounwind uwtable
define linkonce_odr hidden noundef i32 @_ZN4llvh3sys15getSwappedBytesEj(i32 noundef %C) #0 comdat {
entry:
  %C.addr = alloca i32, align 4
  store i32 %C, ptr %C.addr, align 4
  %0 = load i32, ptr %C.addr, align 4
  %call = call noundef i32 @_ZN4llvh3sys16SwapByteOrder_32Ej(i32 noundef %0)
  ret i32 %call
}

; Function Attrs: mustprogress nounwind uwtable
define linkonce_odr hidden void @_ZN4llvh3sys13swapByteOrderIjEEvRT_(ptr noundef nonnull align 4 dereferenceable(4) %Value) #0 comdat {
entry:
  %Value.addr = alloca ptr, align 8
  store ptr %Value, ptr %Value.addr, align 8
  %0 = load ptr, ptr %Value.addr, align 8
  %1 = load i32, ptr %0, align 4
  %call = call noundef i32 @_ZN4llvh3sys15getSwappedBytesEj(i32 noundef %1)
  %2 = load ptr, ptr %Value.addr, align 8
  store i32 %call, ptr %2, align 4
  ret void
}

; Function Attrs: mustprogress nounwind uwtable
define linkonce_odr hidden noundef i32 @_ZN4llvh7support6endian17system_endiannessEv() #0 comdat {
entry:
  ret i32 1
}

; Function Attrs: mustprogress nounwind uwtable
define linkonce_odr hidden noundef i32 @_ZN4llvh7support6endian9byte_swapIjEET_S3_NS0_10endiannessE(i32 noundef %value, i32 noundef %endian) #0 comdat {
entry:
  %value.addr = alloca i32, align 4
  %endian.addr = alloca i32, align 4
  store i32 %value, ptr %value.addr, align 4
  store i32 %endian, ptr %endian.addr, align 4
  %0 = load i32, ptr %endian.addr, align 4
  %cmp = icmp ne i32 %0, 2
  br i1 %cmp, label %land.lhs.true, label %if.end

land.lhs.true:                                    ; preds = %entry
  %1 = load i32, ptr %endian.addr, align 4
  %call = call noundef i32 @_ZN4llvh7support6endian17system_endiannessEv()
  %cmp1 = icmp ne i32 %1, %call
  br i1 %cmp1, label %if.then, label %if.end

if.then:                                          ; preds = %land.lhs.true
  call void @_ZN4llvh3sys13swapByteOrderIjEEvRT_(ptr noundef nonnull align 4 dereferenceable(4) %value.addr)
  br label %if.end

if.end:                                           ; preds = %if.then, %land.lhs.true, %entry
  %2 = load i32, ptr %value.addr, align 4
  ret i32 %2
}

; Function Attrs: mustprogress nounwind uwtable
define linkonce_odr hidden void @_ZN4llvh7support6endian5writeIjLm1EEEvPvT_NS0_10endiannessE(ptr noundef %memory, i32 noundef %value, i32 noundef %endian) #0 comdat {
entry:
  %memory.addr = alloca ptr, align 8
  %value.addr = alloca i32, align 4
  %endian.addr = alloca i32, align 4
  store ptr %memory, ptr %memory.addr, align 8
  store i32 %value, ptr %value.addr, align 4
  store i32 %endian, ptr %endian.addr, align 4
  %0 = load i32, ptr %value.addr, align 4
  %1 = load i32, ptr %endian.addr, align 4
  %call = call noundef i32 @_ZN4llvh7support6endian9byte_swapIjEET_S3_NS0_10endiannessE(i32 noundef %0, i32 noundef %1)
  store i32 %call, ptr %value.addr, align 4
  %2 = load ptr, ptr %memory.addr, align 8
  call void @llvm.assume(i1 true) [ "align"(ptr %2, i64 1) ]
  call void @llvm.memcpy.p0.p0.i64(ptr align 1 %2, ptr align 4 %value.addr, i64 4, i1 false)
  ret void
}

; Function Attrs: mustprogress nounwind uwtable
define linkonce_odr hidden void @_ZN4llvh7support6endian5writeIjLNS0_10endiannessE1ELm1EEEvPvT_(ptr noundef %memory, i32 noundef %value) #0 comdat {
entry:
  %memory.addr = alloca ptr, align 8
  %value.addr = alloca i32, align 4
  store ptr %memory, ptr %memory.addr, align 8
  store i32 %value, ptr %value.addr, align 4
  %0 = load ptr, ptr %memory.addr, align 8
  %1 = load i32, ptr %value.addr, align 4
  call void @_ZN4llvh7support6endian5writeIjLm1EEEvPvT_NS0_10endiannessE(ptr noundef %0, i32 noundef %1, i32 noundef 1)
  ret void
}

; Function Attrs: mustprogress nounwind uwtable
define linkonce_odr hidden void @_ZN4llvh7support6detail31packed_endian_specific_integralIjLNS0_10endiannessE1ELm1EEaSEj(ptr noundef nonnull align 1 dereferenceable(4) %this, i32 noundef %newValue) #0 comdat align 2 {
entry:
  %this.addr = alloca ptr, align 8
  %newValue.addr = alloca i32, align 4
  store ptr %this, ptr %this.addr, align 8
  store i32 %newValue, ptr %newValue.addr, align 4
  %this1 = load ptr, ptr %this.addr, align 8
  %Value = getelementptr inbounds %"struct.llvh::support::detail::packed_endian_specific_integral", ptr %this1, i32 0, i32 0
  %buffer = getelementptr inbounds %"struct.llvh::AlignedCharArray.0", ptr %Value, i32 0, i32 0
  %arraydecay = getelementptr inbounds [4 x i8], ptr %buffer, i64 0, i64 0
  %0 = load i32, ptr %newValue.addr, align 4
  call void @_ZN4llvh7support6endian5writeIjLNS0_10endiannessE1ELm1EEEvPvT_(ptr noundef %arraydecay, i32 noundef %0)
  ret void
}

; Function Attrs: mustprogress nounwind uwtable
define linkonce_odr noundef nonnull align 1 dereferenceable(1) ptr @_ZNSt14__array_traitsIhLm16EE6_S_refERA16_Khm(ptr noundef nonnull align 1 dereferenceable(16) %__t, i64 noundef %__n) #0 comdat align 2 {
entry:
  %__t.addr = alloca ptr, align 8
  %__n.addr = alloca i64, align 8
  store ptr %__t, ptr %__t.addr, align 8
  store i64 %__n, ptr %__n.addr, align 8
  %0 = load ptr, ptr %__t.addr, align 8
  %1 = load i64, ptr %__n.addr, align 8
  %arrayidx = getelementptr inbounds [16 x i8], ptr %0, i64 0, i64 %1
  ret ptr %arrayidx
}

; Function Attrs: mustprogress nounwind uwtable
define linkonce_odr hidden void @_ZN4llvh7support6endian5writeIjLNS0_10endiannessE1EEEvPvT_(ptr noundef %P, i32 noundef %V) #0 comdat {
entry:
  %P.addr = alloca ptr, align 8
  %V.addr = alloca i32, align 4
  store ptr %P, ptr %P.addr, align 8
  store i32 %V, ptr %V.addr, align 4
  %0 = load i32, ptr %V.addr, align 4
  %1 = load ptr, ptr %P.addr, align 8
  call void @_ZN4llvh7support6detail31packed_endian_specific_integralIjLNS0_10endiannessE1ELm1EEaSEj(ptr noundef nonnull align 1 dereferenceable(4) %1, i32 noundef %0)
  ret void
}

; Function Attrs: mustprogress nounwind uwtable
define linkonce_odr noundef nonnull align 1 dereferenceable(1) ptr @_ZNSt5arrayIhLm16EEixEm(ptr noundef nonnull align 1 dereferenceable(16) %this, i64 noundef %__n) #0 comdat align 2 {
entry:
  %this.addr = alloca ptr, align 8
  %__n.addr = alloca i64, align 8
  store ptr %this, ptr %this.addr, align 8
  store i64 %__n, ptr %__n.addr, align 8
  %this1 = load ptr, ptr %this.addr, align 8
  %_M_elems = getelementptr inbounds %"struct.std::array", ptr %this1, i32 0, i32 0
  %0 = load i64, ptr %__n.addr, align 8
  %call = call noundef nonnull align 1 dereferenceable(1) ptr @_ZNSt14__array_traitsIhLm16EE6_S_refERA16_Khm(ptr noundef nonnull align 1 dereferenceable(16) %_M_elems, i64 noundef %0) #7
  ret ptr %call
}

; Function Attrs: mustprogress nounwind uwtable
define linkonce_odr hidden void @_ZN4llvh7support6endian7write32ILNS0_10endiannessE1EEEvPvj(ptr noundef %P, i32 noundef %V) #0 comdat {
entry:
  %P.addr = alloca ptr, align 8
  %V.addr = alloca i32, align 4
  store ptr %P, ptr %P.addr, align 8
  store i32 %V, ptr %V.addr, align 4
  %0 = load ptr, ptr %P.addr, align 8
  %1 = load i32, ptr %V.addr, align 4
  call void @_ZN4llvh7support6endian5writeIjLNS0_10endiannessE1EEEvPvT_(ptr noundef %0, i32 noundef %1)
  ret void
}

; Function Attrs: mustprogress nounwind uwtable
define linkonce_odr hidden void @_ZN4llvh8ArrayRefIhEC2EPKhm(ptr noundef nonnull align 8 dereferenceable(16) %this, ptr noundef %data, i64 noundef %length) unnamed_addr #0 comdat align 2 {
entry:
  %this.addr = alloca ptr, align 8
  %data.addr = alloca ptr, align 8
  %length.addr = alloca i64, align 8
  store ptr %this, ptr %this.addr, align 8
  store ptr %data, ptr %data.addr, align 8
  store i64 %length, ptr %length.addr, align 8
  %this1 = load ptr, ptr %this.addr, align 8
  %Data = getelementptr inbounds %"class.llvh::ArrayRef", ptr %this1, i32 0, i32 0
  %0 = load ptr, ptr %data.addr, align 8
  store ptr %0, ptr %Data, align 8
  %Length = getelementptr inbounds %"class.llvh::ArrayRef", ptr %this1, i32 0, i32 1
  %1 = load i64, ptr %length.addr, align 8
  store i64 %1, ptr %Length, align 8
  ret void
}

; Function Attrs: mustprogress nounwind uwtable
define linkonce_odr hidden noundef nonnull align 1 dereferenceable(1) ptr @_ZN4llvh3MD59MD5ResultixEm(ptr noundef nonnull align 1 dereferenceable(16) %this, i64 noundef %I) #0 comdat align 2 {
entry:
  %this.addr = alloca ptr, align 8
  %I.addr = alloca i64, align 8
  store ptr %this, ptr %this.addr, align 8
  store i64 %I, ptr %I.addr, align 8
  %this1 = load ptr, ptr %this.addr, align 8
  %Bytes = getelementptr inbounds %"struct.llvh::MD5::MD5Result", ptr %this1, i32 0, i32 0
  %0 = load i64, ptr %I.addr, align 8
  %call = call noundef nonnull align 1 dereferenceable(1) ptr @_ZNSt5arrayIhLm16EEixEm(ptr noundef nonnull align 1 dereferenceable(16) %Bytes, i64 noundef %0) #7
  ret ptr %call
}

; Function Attrs: mustprogress nounwind uwtable
define linkonce_odr hidden void @_ZN4llvh7support6endian9write32leEPvj(ptr noundef %P, i32 noundef %V) #0 comdat {
entry:
  %P.addr = alloca ptr, align 8
  %V.addr = alloca i32, align 4
  store ptr %P, ptr %P.addr, align 8
  store i32 %V, ptr %V.addr, align 4
  %0 = load ptr, ptr %P.addr, align 8
  %1 = load i32, ptr %V.addr, align 4
  call void @_ZN4llvh7support6endian7write32ILNS0_10endiannessE1EEEvPvj(ptr noundef %0, i32 noundef %1)
  ret void
}

; Function Attrs: mustprogress nounwind uwtable
define linkonce_odr hidden { ptr, i64 } @_ZN4llvh12makeArrayRefIhEENS_8ArrayRefIT_EEPKS2_m(ptr noundef %data, i64 noundef %length) #0 comdat {
entry:
  %retval = alloca %"class.llvh::ArrayRef", align 8
  %data.addr = alloca ptr, align 8
  %length.addr = alloca i64, align 8
  store ptr %data, ptr %data.addr, align 8
  store i64 %length, ptr %length.addr, align 8
  %0 = load ptr, ptr %data.addr, align 8
  %1 = load i64, ptr %length.addr, align 8
  call void @_ZN4llvh8ArrayRefIhEC2EPKhm(ptr noundef nonnull align 8 dereferenceable(16) %retval, ptr noundef %0, i64 noundef %1)
  %2 = load { ptr, i64 }, ptr %retval, align 8
  ret { ptr, i64 } %2
}

; Function Attrs: mustprogress nounwind uwtable
define hidden void @_ZN4llvh3MD55finalERNS0_9MD5ResultE(ptr noundef nonnull align 4 dereferenceable(152) %this, ptr noundef nonnull align 1 dereferenceable(16) %Result) #0 align 2 {
entry:
  %this.addr = alloca ptr, align 8
  %Result.addr = alloca ptr, align 8
  %used = alloca i64, align 8
  %free = alloca i64, align 8
  %agg.tmp = alloca %"class.llvh::ArrayRef", align 8
  %agg.tmp15 = alloca %"class.llvh::ArrayRef", align 8
  store ptr %this, ptr %this.addr, align 8
  store ptr %Result, ptr %Result.addr, align 8
  %this1 = load ptr, ptr %this.addr, align 8
  %lo = getelementptr inbounds %"class.llvh::MD5", ptr %this1, i32 0, i32 5
  %0 = load i32, ptr %lo, align 4
  %and = and i32 %0, 63
  %conv = zext i32 %and to i64
  store i64 %conv, ptr %used, align 8
  %buffer = getelementptr inbounds %"class.llvh::MD5", ptr %this1, i32 0, i32 6
  %1 = load i64, ptr %used, align 8
  %inc = add i64 %1, 1
  store i64 %inc, ptr %used, align 8
  %arrayidx = getelementptr inbounds [64 x i8], ptr %buffer, i64 0, i64 %1
  store i8 -128, ptr %arrayidx, align 1
  %2 = load i64, ptr %used, align 8
  %sub = sub i64 64, %2
  store i64 %sub, ptr %free, align 8
  %3 = load i64, ptr %free, align 8
  %cmp = icmp ult i64 %3, 8
  br i1 %cmp, label %if.then, label %if.end

if.then:                                          ; preds = %entry
  %buffer2 = getelementptr inbounds %"class.llvh::MD5", ptr %this1, i32 0, i32 6
  %4 = load i64, ptr %used, align 8
  %arrayidx3 = getelementptr inbounds [64 x i8], ptr %buffer2, i64 0, i64 %4
  %5 = load i64, ptr %free, align 8
  call void @llvm.memset.p0.i64(ptr align 1 %arrayidx3, i8 0, i64 %5, i1 false)
  %buffer4 = getelementptr inbounds %"class.llvh::MD5", ptr %this1, i32 0, i32 6
  %arraydecay = getelementptr inbounds [64 x i8], ptr %buffer4, i64 0, i64 0
  %call = call { ptr, i64 } @_ZN4llvh12makeArrayRefIhEENS_8ArrayRefIT_EEPKS2_m(ptr noundef %arraydecay, i64 noundef 64)
  %6 = getelementptr inbounds { ptr, i64 }, ptr %agg.tmp, i32 0, i32 0
  %7 = extractvalue { ptr, i64 } %call, 0
  store ptr %7, ptr %6, align 8
  %8 = getelementptr inbounds { ptr, i64 }, ptr %agg.tmp, i32 0, i32 1
  %9 = extractvalue { ptr, i64 } %call, 1
  store i64 %9, ptr %8, align 8
  %10 = getelementptr inbounds { ptr, i64 }, ptr %agg.tmp, i32 0, i32 0
  %11 = load ptr, ptr %10, align 8
  %12 = getelementptr inbounds { ptr, i64 }, ptr %agg.tmp, i32 0, i32 1
  %13 = load i64, ptr %12, align 8
  %call5 = call noundef ptr @_ZN4llvh3MD54bodyENS_8ArrayRefIhEE(ptr noundef nonnull align 4 dereferenceable(152) %this1, ptr %11, i64 %13)
  store i64 0, ptr %used, align 8
  store i64 64, ptr %free, align 8
  br label %if.end

if.end:                                           ; preds = %if.then, %entry
  %buffer6 = getelementptr inbounds %"class.llvh::MD5", ptr %this1, i32 0, i32 6
  %14 = load i64, ptr %used, align 8
  %arrayidx7 = getelementptr inbounds [64 x i8], ptr %buffer6, i64 0, i64 %14
  %15 = load i64, ptr %free, align 8
  %sub8 = sub i64 %15, 8
  call void @llvm.memset.p0.i64(ptr align 1 %arrayidx7, i8 0, i64 %sub8, i1 false)
  %lo9 = getelementptr inbounds %"class.llvh::MD5", ptr %this1, i32 0, i32 5
  %16 = load i32, ptr %lo9, align 4
  %shl = shl i32 %16, 3
  store i32 %shl, ptr %lo9, align 4
  %buffer10 = getelementptr inbounds %"class.llvh::MD5", ptr %this1, i32 0, i32 6
  %arrayidx11 = getelementptr inbounds [64 x i8], ptr %buffer10, i64 0, i64 56
  %lo12 = getelementptr inbounds %"class.llvh::MD5", ptr %this1, i32 0, i32 5
  %17 = load i32, ptr %lo12, align 4
  call void @_ZN4llvh7support6endian9write32leEPvj(ptr noundef %arrayidx11, i32 noundef %17)
  %buffer13 = getelementptr inbounds %"class.llvh::MD5", ptr %this1, i32 0, i32 6
  %arrayidx14 = getelementptr inbounds [64 x i8], ptr %buffer13, i64 0, i64 60
  %hi = getelementptr inbounds %"class.llvh::MD5", ptr %this1, i32 0, i32 4
  %18 = load i32, ptr %hi, align 4
  call void @_ZN4llvh7support6endian9write32leEPvj(ptr noundef %arrayidx14, i32 noundef %18)
  %buffer16 = getelementptr inbounds %"class.llvh::MD5", ptr %this1, i32 0, i32 6
  %arraydecay17 = getelementptr inbounds [64 x i8], ptr %buffer16, i64 0, i64 0
  %call18 = call { ptr, i64 } @_ZN4llvh12makeArrayRefIhEENS_8ArrayRefIT_EEPKS2_m(ptr noundef %arraydecay17, i64 noundef 64)
  %19 = getelementptr inbounds { ptr, i64 }, ptr %agg.tmp15, i32 0, i32 0
  %20 = extractvalue { ptr, i64 } %call18, 0
  store ptr %20, ptr %19, align 8
  %21 = getelementptr inbounds { ptr, i64 }, ptr %agg.tmp15, i32 0, i32 1
  %22 = extractvalue { ptr, i64 } %call18, 1
  store i64 %22, ptr %21, align 8
  %23 = getelementptr inbounds { ptr, i64 }, ptr %agg.tmp15, i32 0, i32 0
  %24 = load ptr, ptr %23, align 8
  %25 = getelementptr inbounds { ptr, i64 }, ptr %agg.tmp15, i32 0, i32 1
  %26 = load i64, ptr %25, align 8
  %call19 = call noundef ptr @_ZN4llvh3MD54bodyENS_8ArrayRefIhEE(ptr noundef nonnull align 4 dereferenceable(152) %this1, ptr %24, i64 %26)
  %27 = load ptr, ptr %Result.addr, align 8
  %call20 = call noundef nonnull align 1 dereferenceable(1) ptr @_ZN4llvh3MD59MD5ResultixEm(ptr noundef nonnull align 1 dereferenceable(16) %27, i64 noundef 0)
  %a = getelementptr inbounds %"class.llvh::MD5", ptr %this1, i32 0, i32 0
  %28 = load i32, ptr %a, align 4
  call void @_ZN4llvh7support6endian9write32leEPvj(ptr noundef %call20, i32 noundef %28)
  %29 = load ptr, ptr %Result.addr, align 8
  %call21 = call noundef nonnull align 1 dereferenceable(1) ptr @_ZN4llvh3MD59MD5ResultixEm(ptr noundef nonnull align 1 dereferenceable(16) %29, i64 noundef 4)
  %b = getelementptr inbounds %"class.llvh::MD5", ptr %this1, i32 0, i32 1
  %30 = load i32, ptr %b, align 4
  call void @_ZN4llvh7support6endian9write32leEPvj(ptr noundef %call21, i32 noundef %30)
  %31 = load ptr, ptr %Result.addr, align 8
  %call22 = call noundef nonnull align 1 dereferenceable(1) ptr @_ZN4llvh3MD59MD5ResultixEm(ptr noundef nonnull align 1 dereferenceable(16) %31, i64 noundef 8)
  %c = getelementptr inbounds %"class.llvh::MD5", ptr %this1, i32 0, i32 2
  %32 = load i32, ptr %c, align 4
  call void @_ZN4llvh7support6endian9write32leEPvj(ptr noundef %call22, i32 noundef %32)
  %33 = load ptr, ptr %Result.addr, align 8
  %call23 = call noundef nonnull align 1 dereferenceable(1) ptr @_ZN4llvh3MD59MD5ResultixEm(ptr noundef nonnull align 1 dereferenceable(16) %33, i64 noundef 12)
  %d = getelementptr inbounds %"class.llvh::MD5", ptr %this1, i32 0, i32 3
  %34 = load i32, ptr %d, align 4
  call void @_ZN4llvh7support6endian9write32leEPvj(ptr noundef %call23, i32 noundef %34)
  ret void
}