; Function Attrs: mustprogress nofree norecurse nosync nounwind memory(read, argmem: readwrite, inaccessiblemem: write) uwtable
define hidden void @_ZN4llvh3MD55finalERNS0_9MD5ResultE(ptr noundef nonnull align 4 dereferenceable(152) %this, ptr noundef nonnull align 1 dereferenceable(16) %Result) local_unnamed_addr #4 align 2 {
entry:
  %lo = getelementptr inbounds i8, ptr %this, i64 20
  %0 = load i32, ptr %lo, align 4
  %and = and i32 %0, 63
  %conv = zext nneg i32 %and to i64
  %buffer = getelementptr inbounds i8, ptr %this, i64 24
  %inc = add nuw nsw i64 %conv, 1
  %arrayidx = getelementptr inbounds [64 x i8], ptr %buffer, i64 0, i64 %conv
  store i8 -128, ptr %arrayidx, align 1
  %sub = xor i64 %conv, 63
  %cmp = icmp ult i64 %sub, 8
  br i1 %cmp, label %if.then, label %if.end

if.then:                                          ; preds = %entry
  %arrayidx3 = getelementptr inbounds [64 x i8], ptr %buffer, i64 0, i64 %inc
  tail call void @llvm.memset.p0.i64(ptr nonnull align 1 %arrayidx3, i8 0, i64 %sub, i1 false)
  %call5 = tail call noundef ptr @_ZN4llvh3MD54bodyENS_8ArrayRefIhEE(ptr noundef nonnull align 4 dereferenceable(152) %this, ptr nonnull %buffer, i64 64)
  br label %if.end

if.end:                                           ; preds = %if.then, %entry
  %free.0 = phi i64 [ 64, %if.then ], [ %sub, %entry ]
  %used.0 = phi i64 [ 0, %if.then ], [ %inc, %entry ]
  %arrayidx7 = getelementptr inbounds [64 x i8], ptr %buffer, i64 0, i64 %used.0
  %sub8 = add nsw i64 %free.0, -8
  tail call void @llvm.memset.p0.i64(ptr nonnull align 1 %arrayidx7, i8 0, i64 %sub8, i1 false)
  %1 = load i32, ptr %lo, align 4
  %shl = shl i32 %1, 3
  store i32 %shl, ptr %lo, align 4
  %arrayidx11 = getelementptr inbounds i8, ptr %this, i64 80
  call void @llvm.assume(i1 true) [ "align"(ptr %arrayidx11, i64 1) ]
  store i32 %shl, ptr %arrayidx11, align 4
  %arrayidx14 = getelementptr inbounds i8, ptr %this, i64 84
  %hi = getelementptr inbounds i8, ptr %this, i64 16
  %2 = load i32, ptr %hi, align 4
  call void @llvm.assume(i1 true) [ "align"(ptr %arrayidx14, i64 1) ]
  store i32 %2, ptr %arrayidx14, align 4
  %call19 = tail call noundef ptr @_ZN4llvh3MD54bodyENS_8ArrayRefIhEE(ptr noundef nonnull align 4 dereferenceable(152) %this, ptr nonnull %buffer, i64 64)
  %3 = load i32, ptr %this, align 4
  call void @llvm.assume(i1 true) [ "align"(ptr %Result, i64 1) ]
  store i32 %3, ptr %Result, align 1
  %arrayidx.i.i.i = getelementptr inbounds i8, ptr %Result, i64 4
  %b = getelementptr inbounds i8, ptr %this, i64 4
  %4 = load i32, ptr %b, align 4
  call void @llvm.assume(i1 true) [ "align"(ptr %arrayidx.i.i.i, i64 1) ]
  store i32 %4, ptr %arrayidx.i.i.i, align 1
  %arrayidx.i.i.i11 = getelementptr inbounds i8, ptr %Result, i64 8
  %c = getelementptr inbounds i8, ptr %this, i64 8
  %5 = load i32, ptr %c, align 4
  call void @llvm.assume(i1 true) [ "align"(ptr %arrayidx.i.i.i11, i64 1) ]
  store i32 %5, ptr %arrayidx.i.i.i11, align 1
  %arrayidx.i.i.i12 = getelementptr inbounds i8, ptr %Result, i64 12
  %d = getelementptr inbounds i8, ptr %this, i64 12
  %6 = load i32, ptr %d, align 4
  call void @llvm.assume(i1 true) [ "align"(ptr %arrayidx.i.i.i12, i64 1) ]
  store i32 %6, ptr %arrayidx.i.i.i12, align 1
  ret void
}